target datalayout = "e-m:e-p270:32:32-p271:32:32-p272:64:64-i64:64-i128:128-f80:128-n8:16:32:64-S128"
target triple = "x86_64-pc-linux-gnu"

%"class.cv::wechat_qrcode::ImgSource" = type { %"class.zxing::LuminanceSource.base", %"class.zxing::ArrayRef", ptr, ptr, i32, i32, i32, i32 }
%"class.zxing::LuminanceSource.base" = type { %"class.zxing::Counted.base", i32, i32 }
%"class.zxing::Counted.base" = type <{ ptr, i32 }>
%"class.zxing::ArrayRef" = type { %"class.zxing::Counted.base", ptr }
%"class.zxing::IllegalArgumentErrorHandler" = type { %"class.zxing::ErrorHandler" }
%"class.zxing::ErrorHandler" = type { ptr, i32, i32, %"class.std::__cxx11::basic_string" }
%"class.std::__cxx11::basic_string" = type { %"struct.std::__cxx11::basic_string<char>::_Alloc_hider", i64, %union.anon }
%"struct.std::__cxx11::basic_string<char>::_Alloc_hider" = type { ptr }
%union.anon = type { i64, [8 x i8] }
%"class.zxing::Counted" = type <{ ptr, i32, [4 x i8] }>

@.str = private unnamed_addr constant [47 x i8] c"Crop rectangle does not fit within image data.\00", align 1
@_ZTVN5zxing12ErrorHandlerE = external unnamed_addr constant { [10 x ptr] }, align 8
@_ZTVN5zxing8ArrayRefIcEE = linkonce_odr hidden unnamed_addr constant { [4 x ptr] } { [4 x ptr] [ptr null, ptr @_ZTIN5zxing8ArrayRefIcEE, ptr @_ZN5zxing8ArrayRefIcED2Ev, ptr @_ZN5zxing8ArrayRefIcED0Ev] }, comdat, align 8
@_ZTVN5zxing7CountedE = linkonce_odr hidden unnamed_addr constant { [4 x ptr] } { [4 x ptr] [ptr null, ptr @_ZTIN5zxing7CountedE, ptr @_ZN5zxing7CountedD2Ev, ptr @_ZN5zxing7CountedD0Ev] }, comdat, align 8

; Function Attrs: noreturn nounwind uwtable
define linkonce_odr hidden void @__clang_call_terminate(ptr noundef %0) #8 comdat {
  %2 = call ptr @__cxa_begin_catch(ptr %0) #11
  call void @_ZSt9terminatev() #12
  unreachable
}

; Function Attrs: mustprogress nounwind uwtable
define linkonce_odr hidden void @_ZN5zxing7CountedD2Ev(ptr noundef nonnull align 8 dereferenceable(12) %0) unnamed_addr #4 comdat align 2 {
  %2 = alloca ptr, align 8
  store ptr %0, ptr %2, align 8
  ret void
}

; Function Attrs: mustprogress nounwind uwtable
define linkonce_odr hidden void @_ZN5zxing7Counted7releaseEv(ptr noundef nonnull align 8 dereferenceable(12) %0) #4 comdat align 2 {
  %2 = alloca ptr, align 8
  store ptr %0, ptr %2, align 8
  %3 = load ptr, ptr %2, align 8
  %4 = getelementptr inbounds %"class.zxing::Counted", ptr %3, i32 0, i32 1
  %5 = load i32, ptr %4, align 8
  %6 = add i32 %5, -1
  store i32 %6, ptr %4, align 8
  %7 = getelementptr inbounds %"class.zxing::Counted", ptr %3, i32 0, i32 1
  %8 = load i32, ptr %7, align 8
  %9 = icmp eq i32 %8, 0
  br i1 %9, label %10, label %18

10:                                               ; preds = %1
  %11 = getelementptr inbounds %"class.zxing::Counted", ptr %3, i32 0, i32 1
  store i32 -559026175, ptr %11, align 8
  %12 = icmp eq ptr %3, null
  br i1 %12, label %17, label %13

13:                                               ; preds = %10
  %14 = load ptr, ptr %3, align 8
  %15 = getelementptr inbounds ptr, ptr %14, i64 1
  %16 = load ptr, ptr %15, align 8
  call void %16(ptr noundef nonnull align 8 dereferenceable(12) %3) #11
  br label %17

17:                                               ; preds = %13, %10
  br label %18

18:                                               ; preds = %17, %1
  ret void
}

; Function Attrs: mustprogress nounwind uwtable
define linkonce_odr hidden void @_ZN5zxing12ErrorHandlerD2Ev(ptr noundef nonnull align 8 dereferenceable(48) %0) unnamed_addr #4 comdat align 2 {
  %2 = alloca ptr, align 8
  store ptr %0, ptr %2, align 8
  %3 = load ptr, ptr %2, align 8
  store ptr getelementptr inbounds inrange(-16, 64) ({ [10 x ptr] }, ptr @_ZTVN5zxing12ErrorHandlerE, i32 0, i32 0, i32 2), ptr %3, align 8
  %4 = getelementptr inbounds %"class.zxing::ErrorHandler", ptr %3, i32 0, i32 3
  call void @_ZNSt7__cxx1112basic_stringIcSt11char_traitsIcESaIcEED1Ev(ptr noundef nonnull align 8 dereferenceable(32) %4) #11
  ret void
}

; Function Attrs: mustprogress nounwind uwtable
define linkonce_odr hidden void @_ZN5zxing7CountedC2Ev(ptr noundef nonnull align 8 dereferenceable(12) %0) unnamed_addr #4 comdat align 2 {
  %2 = alloca ptr, align 8
  store ptr %0, ptr %2, align 8
  %3 = load ptr, ptr %2, align 8
  store ptr getelementptr inbounds inrange(-16, 16) ({ [4 x ptr] }, ptr @_ZTVN5zxing7CountedE, i32 0, i32 0, i32 2), ptr %3, align 8
  %4 = getelementptr inbounds %"class.zxing::Counted", ptr %3, i32 0, i32 1
  store i32 0, ptr %4, align 8
  ret void
}

; Function Attrs: mustprogress nounwind uwtable
define linkonce_odr hidden void @_ZN5zxing8ArrayRefIcED2Ev(ptr noundef nonnull align 8 dereferenceable(24) %0) unnamed_addr #4 comdat align 2 personality ptr @__gxx_personality_v0 {
  %2 = alloca ptr, align 8
  store ptr %0, ptr %2, align 8
  %3 = load ptr, ptr %2, align 8
  store ptr getelementptr inbounds inrange(-16, 16) ({ [4 x ptr] }, ptr @_ZTVN5zxing8ArrayRefIcEE, i32 0, i32 0, i32 2), ptr %3, align 8
  %4 = getelementptr inbounds %"class.zxing::ArrayRef", ptr %3, i32 0, i32 1
  %5 = load ptr, ptr %4, align 8
  %6 = icmp ne ptr %5, null
  br i1 %6, label %7, label %11

7:                                                ; preds = %1
  %8 = getelementptr inbounds %"class.zxing::ArrayRef", ptr %3, i32 0, i32 1
  %9 = load ptr, ptr %8, align 8
  invoke void @_ZN5zxing7Counted7releaseEv(ptr noundef nonnull align 8 dereferenceable(12) %9)
          to label %10 unwind label %13

10:                                               ; preds = %7
  br label %11

11:                                               ; preds = %10, %1
  %12 = getelementptr inbounds %"class.zxing::ArrayRef", ptr %3, i32 0, i32 1
  store ptr null, ptr %12, align 8
  call void @_ZN5zxing7CountedD2Ev(ptr noundef nonnull align 8 dereferenceable(12) %3) #11
  ret void

13:                                               ; preds = %7
  %14 = landingpad { ptr, i32 }
          catch ptr null
  %15 = extractvalue { ptr, i32 } %14, 0
  call void @__clang_call_terminate(ptr %15) #12
  unreachable
}

; Function Attrs: mustprogress nounwind uwtable
define linkonce_odr hidden void @_ZN5zxing27IllegalArgumentErrorHandlerD2Ev(ptr noundef nonnull align 8 dereferenceable(48) %0) unnamed_addr #4 comdat align 2 {
  %2 = alloca ptr, align 8
  store ptr %0, ptr %2, align 8
  %3 = load ptr, ptr %2, align 8
  call void @_ZN5zxing12ErrorHandlerD2Ev(ptr noundef nonnull align 8 dereferenceable(48) %3) #11
  ret void
}

; Function Attrs: mustprogress uwtable
define linkonce_odr hidden void @_ZN5zxing27IllegalArgumentErrorHandlerC2EPKc(ptr noundef nonnull align 8 dereferenceable(48) %0, ptr noundef %1) unnamed_addr #0 comdat align 2 personality ptr @__gxx_personality_v0 {
  %3 = alloca ptr, align 8
  %4 = alloca ptr, align 8
  %5 = alloca ptr, align 8
  %6 = alloca i32, align 4
  store ptr %0, ptr %3, align 8
  store ptr %1, ptr %4, align 8
  %7 = load ptr, ptr %3, align 8
  %8 = load ptr, ptr %4, align 8
  call void @_ZN5zxing12ErrorHandlerC2EPKc(ptr noundef nonnull align 8 dereferenceable(48) %7, ptr noundef %8)
  store ptr getelementptr inbounds inrange(-16, 64) ({ [10 x ptr] }, ptr @_ZTVN5zxing27IllegalArgumentErrorHandlerE, i32 0, i32 0, i32 2), ptr %7, align 8
  %9 = load ptr, ptr %7, align 8
  %10 = getelementptr inbounds ptr, ptr %9, i64 5
  %11 = load ptr, ptr %10, align 8
  invoke void %11(ptr noundef nonnull align 8 dereferenceable(48) %7)
          to label %12 unwind label %13

12:                                               ; preds = %2
  ret void

13:                                               ; preds = %2
  %14 = landingpad { ptr, i32 }
          cleanup
  %15 = extractvalue { ptr, i32 } %14, 0
  store ptr %15, ptr %5, align 8
  %16 = extractvalue { ptr, i32 } %14, 1
  store i32 %16, ptr %6, align 4
  call void @_ZN5zxing12ErrorHandlerD2Ev(ptr noundef nonnull align 8 dereferenceable(48) %7) #11
  br label %17

17:                                               ; preds = %13
  %18 = load ptr, ptr %5, align 8
  %19 = load i32, ptr %6, align 4
  %20 = insertvalue { ptr, i32 } poison, ptr %18, 0
  %21 = insertvalue { ptr, i32 } %20, i32 %19, 1
  resume { ptr, i32 } %21
}

; Function Attrs: mustprogress uwtable
define linkonce_odr hidden void @_ZN5zxing8ArrayRefIcEC2Ev(ptr noundef nonnull align 8 dereferenceable(24) %0) unnamed_addr #0 comdat align 2 {
  %2 = alloca ptr, align 8
  store ptr %0, ptr %2, align 8
  %3 = load ptr, ptr %2, align 8
  call void @_ZN5zxing7CountedC2Ev(ptr noundef nonnull align 8 dereferenceable(12) %3)
  store ptr getelementptr inbounds inrange(-16, 16) ({ [4 x ptr] }, ptr @_ZTVN5zxing8ArrayRefIcEE, i32 0, i32 0, i32 2), ptr %3, align 8
  %4 = getelementptr inbounds %"class.zxing::ArrayRef", ptr %3, i32 0, i32 1
  store ptr null, ptr %4, align 8
  ret void
}

; Function Attrs: mustprogress uwtable
define hidden void @_ZN2cv13wechat_qrcode9ImgSourceC2EPhiiiiiiRN5zxing12ErrorHandlerE(ptr noundef nonnull align 8 dereferenceable(80) %0, ptr noundef %1, i32 noundef %2, i32 noundef %3, i32 noundef %4, i32 noundef %5, i32 noundef %6, i32 noundef %7, ptr noundef nonnull align 8 dereferenceable(48) %8) unnamed_addr #0 align 2 personality ptr @__gxx_personality_v0 {
  %10 = alloca ptr, align 8
  %11 = alloca ptr, align 8
  %12 = alloca i32, align 4
  %13 = alloca i32, align 4
  %14 = alloca i32, align 4
  %15 = alloca i32, align 4
  %16 = alloca i32, align 4
  %17 = alloca i32, align 4
  %18 = alloca ptr, align 8
  %19 = alloca ptr, align 8
  %20 = alloca i32, align 4
  %21 = alloca %"class.zxing::IllegalArgumentErrorHandler", align 8
  store ptr %0, ptr %10, align 8
  store ptr %1, ptr %11, align 8
  store i32 %2, ptr %12, align 4
  store i32 %3, ptr %13, align 4
  store i32 %4, ptr %14, align 4
  store i32 %5, ptr %15, align 4
  store i32 %6, ptr %16, align 4
  store i32 %7, ptr %17, align 4
  store ptr %8, ptr %18, align 8
  %22 = load ptr, ptr %10, align 8
  %23 = load i32, ptr %16, align 4
  %24 = load i32, ptr %17, align 4
  call void @_ZN5zxing15LuminanceSourceC2Eii(ptr noundef nonnull align 8 dereferenceable(20) %22, i32 noundef %23, i32 noundef %24)
  store ptr getelementptr inbounds inrange(-16, 72) ({ [11 x ptr] }, ptr @_ZTVN2cv13wechat_qrcode9ImgSourceE, i32 0, i32 0, i32 2), ptr %22, align 8
  %25 = getelementptr inbounds %"class.cv::wechat_qrcode::ImgSource", ptr %22, i32 0, i32 1
  invoke void @_ZN5zxing8ArrayRefIcEC2Ev(ptr noundef nonnull align 8 dereferenceable(24) %25)
          to label %26 unwind label %61

26:                                               ; preds = %9
  %27 = load ptr, ptr %11, align 8
  %28 = getelementptr inbounds %"class.cv::wechat_qrcode::ImgSource", ptr %22, i32 0, i32 2
  store ptr %27, ptr %28, align 8
  %29 = load i32, ptr %12, align 4
  %30 = getelementptr inbounds %"class.cv::wechat_qrcode::ImgSource", ptr %22, i32 0, i32 4
  store i32 %29, ptr %30, align 8
  %31 = load i32, ptr %13, align 4
  %32 = getelementptr inbounds %"class.cv::wechat_qrcode::ImgSource", ptr %22, i32 0, i32 5
  store i32 %31, ptr %32, align 4
  %33 = load i32, ptr %14, align 4
  %34 = getelementptr inbounds %"class.cv::wechat_qrcode::ImgSource", ptr %22, i32 0, i32 6
  store i32 %33, ptr %34, align 8
  %35 = load i32, ptr %15, align 4
  %36 = getelementptr inbounds %"class.cv::wechat_qrcode::ImgSource", ptr %22, i32 0, i32 7
  store i32 %35, ptr %36, align 4
  %37 = load i32, ptr %14, align 4
  %38 = load i32, ptr %16, align 4
  %39 = add nsw i32 %37, %38
  %40 = getelementptr inbounds %"class.cv::wechat_qrcode::ImgSource", ptr %22, i32 0, i32 4
  %41 = load i32, ptr %40, align 8
  %42 = icmp sgt i32 %39, %41
  br i1 %42, label %56, label %43

43:                                               ; preds = %26
  %44 = load i32, ptr %15, align 4
  %45 = load i32, ptr %17, align 4
  %46 = add nsw i32 %44, %45
  %47 = getelementptr inbounds %"class.cv::wechat_qrcode::ImgSource", ptr %22, i32 0, i32 5
  %48 = load i32, ptr %47, align 4
  %49 = icmp sgt i32 %46, %48
  br i1 %49, label %56, label %50

50:                                               ; preds = %43
  %51 = load i32, ptr %15, align 4
  %52 = icmp slt i32 %51, 0
  br i1 %52, label %56, label %53

53:                                               ; preds = %50
  %54 = load i32, ptr %14, align 4
  %55 = icmp slt i32 %54, 0
  br i1 %55, label %56, label %73

56:                                               ; preds = %53, %50, %43, %26
  invoke void @_ZN5zxing27IllegalArgumentErrorHandlerC2EPKc(ptr noundef nonnull align 8 dereferenceable(48) %21, ptr noundef @.str)
          to label %57 unwind label %65

57:                                               ; preds = %56
  %58 = load ptr, ptr %18, align 8
  %59 = invoke noundef nonnull align 8 dereferenceable(48) ptr @_ZN5zxing12ErrorHandleraSERKS0_(ptr noundef nonnull align 8 dereferenceable(48) %58, ptr noundef nonnull align 8 dereferenceable(48) %21)
          to label %60 unwind label %69

60:                                               ; preds = %57
  call void @_ZN5zxing27IllegalArgumentErrorHandlerD2Ev(ptr noundef nonnull align 8 dereferenceable(48) %21) #11
  br label %83

61:                                               ; preds = %9
  %62 = landingpad { ptr, i32 }
          cleanup
  %63 = extractvalue { ptr, i32 } %62, 0
  store ptr %63, ptr %19, align 8
  %64 = extractvalue { ptr, i32 } %62, 1
  store i32 %64, ptr %20, align 4
  br label %85

65:                                               ; preds = %81, %73, %56
  %66 = landingpad { ptr, i32 }
          cleanup
  %67 = extractvalue { ptr, i32 } %66, 0
  store ptr %67, ptr %19, align 8
  %68 = extractvalue { ptr, i32 } %66, 1
  store i32 %68, ptr %20, align 4
  br label %84

69:                                               ; preds = %57
  %70 = landingpad { ptr, i32 }
          cleanup
  %71 = extractvalue { ptr, i32 } %70, 0
  store ptr %71, ptr %19, align 8
  %72 = extractvalue { ptr, i32 } %70, 1
  store i32 %72, ptr %20, align 4
  call void @_ZN5zxing27IllegalArgumentErrorHandlerD2Ev(ptr noundef nonnull align 8 dereferenceable(48) %21) #11
  br label %84

73:                                               ; preds = %53
  %74 = load i32, ptr %12, align 4
  %75 = load i32, ptr %13, align 4
  %76 = mul nsw i32 %74, %75
  %77 = sext i32 %76 to i64
  %78 = icmp slt i64 %77, 0
  %79 = select i1 %78, i64 -1, i64 %77
  %80 = invoke noalias noundef nonnull ptr @_Znam(i64 noundef %79) #10
          to label %81 unwind label %65

81:                                               ; preds = %73
  %82 = getelementptr inbounds %"class.cv::wechat_qrcode::ImgSource", ptr %22, i32 0, i32 3
  store ptr %80, ptr %82, align 8
  invoke void @_ZN2cv13wechat_qrcode9ImgSource8makeGrayEv(ptr noundef nonnull align 8 dereferenceable(80) %22)
          to label %83 unwind label %65

83:                                               ; preds = %81, %60
  ret void

84:                                               ; preds = %69, %65
  call void @_ZN5zxing8ArrayRefIcED2Ev(ptr noundef nonnull align 8 dereferenceable(24) %25) #11
  br label %85

85:                                               ; preds = %84, %61
  call void @_ZN5zxing15LuminanceSourceD2Ev(ptr noundef nonnull align 8 dereferenceable(20) %22) #11
  br label %86

86:                                               ; preds = %85
  %87 = load ptr, ptr %19, align 8
  %88 = load i32, ptr %20, align 4
  %89 = insertvalue { ptr, i32 } poison, ptr %87, 0
  %90 = insertvalue { ptr, i32 } %89, i32 %88, 1
  resume { ptr, i32 } %90
}