; Function Attrs: mustprogress uwtable
define hidden void @_ZN2cv13wechat_qrcode9ImgSourceC2EPhiiiiiiRN5zxing12ErrorHandlerE(ptr noundef nonnull align 8 dereferenceable(80) %0, ptr noundef %1, i32 noundef %2, i32 noundef %3, i32 noundef %4, i32 noundef %5, i32 noundef %6, i32 noundef %7, ptr noundef nonnull align 8 dereferenceable(48) %8) unnamed_addr #0 align 2 personality ptr @__gxx_personality_v0 {
  %10 = alloca %"class.zxing::IllegalArgumentErrorHandler", align 8
  tail call void @_ZN5zxing15LuminanceSourceC2Eii(ptr noundef nonnull align 8 dereferenceable(20) %0, i32 noundef %6, i32 noundef %7)
  store ptr getelementptr inbounds nuw inrange(-16, 72) (i8, ptr @_ZTVN2cv13wechat_qrcode9ImgSourceE, i64 16), ptr %0, align 8
  %11 = getelementptr inbounds nuw i8, ptr %0, i64 24
  %12 = getelementptr inbounds nuw i8, ptr %0, i64 32
  store i32 0, ptr %12, align 8
  store ptr getelementptr inbounds nuw inrange(-16, 16) (i8, ptr @_ZTVN5zxing8ArrayRefIcEE, i64 16), ptr %11, align 8
  %13 = getelementptr inbounds nuw i8, ptr %0, i64 40
  store ptr null, ptr %13, align 8
  %14 = getelementptr inbounds nuw i8, ptr %0, i64 48
  store ptr %1, ptr %14, align 8
  %15 = getelementptr inbounds nuw i8, ptr %0, i64 64
  store i32 %2, ptr %15, align 8
  %16 = getelementptr inbounds nuw i8, ptr %0, i64 68
  store i32 %3, ptr %16, align 4
  %17 = getelementptr inbounds nuw i8, ptr %0, i64 72
  store i32 %4, ptr %17, align 8
  %18 = getelementptr inbounds nuw i8, ptr %0, i64 76
  store i32 %5, ptr %18, align 4
  %19 = add nsw i32 %6, %4
  %20 = icmp sgt i32 %19, %2
  br i1 %20, label %26, label %21

21:                                               ; preds = %9
  %22 = add nsw i32 %7, %5
  %23 = icmp sgt i32 %22, %3
  %24 = or i32 %5, %4
  %25 = icmp slt i32 %24, 0
  %or.cond3 = or i1 %25, %23
  br i1 %or.cond3, label %26, label %37

26:                                               ; preds = %21, %9
  invoke void @_ZN5zxing12ErrorHandlerC2EPKc(ptr noundef nonnull align 8 dereferenceable(48) %10, ptr noundef nonnull @.str)
          to label %27 unwind label %32

27:                                               ; preds = %26
  store ptr getelementptr inbounds nuw inrange(-16, 64) (i8, ptr @_ZTVN5zxing27IllegalArgumentErrorHandlerE, i64 16), ptr %10, align 8
  %28 = getelementptr inbounds nuw i8, ptr %10, i64 8
  store i32 4, ptr %28, align 8
  %29 = invoke noundef nonnull align 8 dereferenceable(48) ptr @_ZN5zxing12ErrorHandleraSERKS0_(ptr noundef nonnull align 8 dereferenceable(48) %8, ptr noundef nonnull align 8 dereferenceable(48) %10)
          to label %30 unwind label %34

30:                                               ; preds = %27
  store ptr getelementptr inbounds nuw inrange(-16, 64) (i8, ptr @_ZTVN5zxing12ErrorHandlerE, i64 16), ptr %10, align 8
  %31 = getelementptr inbounds nuw i8, ptr %10, i64 16
  call void @_ZNSt7__cxx1112basic_stringIcSt11char_traitsIcESaIcEED1Ev(ptr noundef nonnull align 8 dereferenceable(32) %31) #15
  br label %43

32:                                               ; preds = %26, %41, %37
  %33 = landingpad { ptr, i32 }
          cleanup
  br label %44

34:                                               ; preds = %27
  %35 = landingpad { ptr, i32 }
          cleanup
  store ptr getelementptr inbounds nuw inrange(-16, 64) (i8, ptr @_ZTVN5zxing12ErrorHandlerE, i64 16), ptr %10, align 8
  %36 = getelementptr inbounds nuw i8, ptr %10, i64 16
  call void @_ZNSt7__cxx1112basic_stringIcSt11char_traitsIcESaIcEED1Ev(ptr noundef nonnull align 8 dereferenceable(32) %36) #15
  br label %44

37:                                               ; preds = %21
  %38 = mul nsw i32 %3, %2
  %narrow = tail call i32 @llvm.smax.i32(i32 %38, i32 -1)
  %39 = sext i32 %narrow to i64
  %40 = invoke noalias noundef nonnull ptr @_Znam(i64 noundef %39) #14
          to label %41 unwind label %32

41:                                               ; preds = %37
  %42 = getelementptr inbounds nuw i8, ptr %0, i64 56
  store ptr %40, ptr %42, align 8
  invoke void @_ZN2cv13wechat_qrcode9ImgSource8makeGrayEv(ptr noundef nonnull align 8 dereferenceable(80) %0)
          to label %43 unwind label %32

43:                                               ; preds = %41, %30
  ret void

44:                                               ; preds = %34, %32
  %.pn = phi { ptr, i32 } [ %35, %34 ], [ %33, %32 ]
  store ptr getelementptr inbounds nuw inrange(-16, 16) (i8, ptr @_ZTVN5zxing8ArrayRefIcEE, i64 16), ptr %11, align 8
  %45 = load ptr, ptr %13, align 8
  %.not.i = icmp eq ptr %45, null
  br i1 %.not.i, label %_ZN5zxing8ArrayRefIcED2Ev.exit, label %46

46:                                               ; preds = %44
  %47 = getelementptr inbounds nuw i8, ptr %45, i64 8
  %48 = load i32, ptr %47, align 8
  %49 = add i32 %48, -1
  store i32 %49, ptr %47, align 8
  %50 = icmp eq i32 %49, 0
  br i1 %50, label %51, label %_ZN5zxing8ArrayRefIcED2Ev.exit

51:                                               ; preds = %46
  store i32 -559026175, ptr %47, align 8
  %52 = load ptr, ptr %45, align 8
  %53 = getelementptr inbounds nuw i8, ptr %52, i64 8
  %54 = load ptr, ptr %53, align 8
  call void %54(ptr noundef nonnull align 8 dereferenceable(12) %45) #15
  br label %_ZN5zxing8ArrayRefIcED2Ev.exit

_ZN5zxing8ArrayRefIcED2Ev.exit:                   ; preds = %44, %46, %51
  store ptr null, ptr %13, align 8
  call void @_ZN5zxing15LuminanceSourceD2Ev(ptr noundef nonnull align 8 dereferenceable(20) %0) #15
  resume { ptr, i32 } %.pn
}